target datalayout = "e-m:e-p270:32:32-p271:32:32-p272:64:64-i64:64-i128:128-f80:128-n8:16:32:64-S128"
target triple = "x86_64-pc-linux-gnu"

%struct.pkcs7_st = type { ptr, i64, i32, i32, ptr, %union.anon, %struct.PKCS7_CTX_st }
%union.anon = type { ptr }
%struct.PKCS7_CTX_st = type { ptr, ptr }
%struct.pkcs7_signed_st = type { ptr, ptr, ptr, ptr, ptr, ptr }
%struct.pkcs7_signedandenveloped_st = type { ptr, ptr, ptr, ptr, ptr, ptr, ptr }
%struct.pkcs7_enc_content_st = type { ptr, ptr, ptr, ptr, ptr }
%struct.pkcs7_enveloped_st = type { ptr, ptr, ptr }
%struct.asn1_string_st = type { i32, i32, ptr, i64 }

; Function Attrs: nounwind uwtable
define i32 @PKCS7_stream(ptr noundef %0, ptr noundef %1) #0 {
  %3 = alloca i32, align 4
  %4 = alloca ptr, align 8
  %5 = alloca ptr, align 8
  %6 = alloca ptr, align 8
  %7 = alloca i32, align 4
  store ptr %0, ptr %4, align 8, !tbaa !138
  store ptr %1, ptr %5, align 8, !tbaa !3
  call void @llvm.lifetime.start.p0(i64 8, ptr %6) #4
  store ptr null, ptr %6, align 8, !tbaa !28
  %8 = load ptr, ptr %5, align 8, !tbaa !3
  %9 = getelementptr inbounds nuw %struct.pkcs7_st, ptr %8, i32 0, i32 4
  %10 = load ptr, ptr %9, align 8, !tbaa !14
  %11 = call i32 @OBJ_obj2nid(ptr noundef %10)
  switch i32 %11, label %64 [
    i32 21, label %12
    i32 24, label %16
    i32 23, label %36
    i32 22, label %56
  ]

12:                                               ; preds = %2
  %13 = load ptr, ptr %5, align 8, !tbaa !3
  %14 = getelementptr inbounds nuw %struct.pkcs7_st, ptr %13, i32 0, i32 5
  %15 = load ptr, ptr %14, align 8, !tbaa !19
  store ptr %15, ptr %6, align 8, !tbaa !28
  br label %65

16:                                               ; preds = %2
  %17 = load ptr, ptr %5, align 8, !tbaa !3
  %18 = getelementptr inbounds nuw %struct.pkcs7_st, ptr %17, i32 0, i32 5
  %19 = load ptr, ptr %18, align 8, !tbaa !19
  %20 = getelementptr inbounds nuw %struct.pkcs7_signedandenveloped_st, ptr %19, i32 0, i32 5
  %21 = load ptr, ptr %20, align 8, !tbaa !35
  %22 = getelementptr inbounds nuw %struct.pkcs7_enc_content_st, ptr %21, i32 0, i32 2
  %23 = load ptr, ptr %22, align 8, !tbaa !140
  store ptr %23, ptr %6, align 8, !tbaa !28
  %24 = load ptr, ptr %6, align 8, !tbaa !28
  %25 = icmp eq ptr %24, null
  br i1 %25, label %26, label %35

26:                                               ; preds = %16
  %27 = call ptr @ASN1_OCTET_STRING_new()
  store ptr %27, ptr %6, align 8, !tbaa !28
  %28 = load ptr, ptr %6, align 8, !tbaa !28
  %29 = load ptr, ptr %5, align 8, !tbaa !3
  %30 = getelementptr inbounds nuw %struct.pkcs7_st, ptr %29, i32 0, i32 5
  %31 = load ptr, ptr %30, align 8, !tbaa !19
  %32 = getelementptr inbounds nuw %struct.pkcs7_signedandenveloped_st, ptr %31, i32 0, i32 5
  %33 = load ptr, ptr %32, align 8, !tbaa !35
  %34 = getelementptr inbounds nuw %struct.pkcs7_enc_content_st, ptr %33, i32 0, i32 2
  store ptr %28, ptr %34, align 8, !tbaa !140
  br label %35

35:                                               ; preds = %26, %16
  br label %65

36:                                               ; preds = %2
  %37 = load ptr, ptr %5, align 8, !tbaa !3
  %38 = getelementptr inbounds nuw %struct.pkcs7_st, ptr %37, i32 0, i32 5
  %39 = load ptr, ptr %38, align 8, !tbaa !19
  %40 = getelementptr inbounds nuw %struct.pkcs7_enveloped_st, ptr %39, i32 0, i32 2
  %41 = load ptr, ptr %40, align 8, !tbaa !43
  %42 = getelementptr inbounds nuw %struct.pkcs7_enc_content_st, ptr %41, i32 0, i32 2
  %43 = load ptr, ptr %42, align 8, !tbaa !140
  store ptr %43, ptr %6, align 8, !tbaa !28
  %44 = load ptr, ptr %6, align 8, !tbaa !28
  %45 = icmp eq ptr %44, null
  br i1 %45, label %46, label %55

46:                                               ; preds = %36
  %47 = call ptr @ASN1_OCTET_STRING_new()
  store ptr %47, ptr %6, align 8, !tbaa !28
  %48 = load ptr, ptr %6, align 8, !tbaa !28
  %49 = load ptr, ptr %5, align 8, !tbaa !3
  %50 = getelementptr inbounds nuw %struct.pkcs7_st, ptr %49, i32 0, i32 5
  %51 = load ptr, ptr %50, align 8, !tbaa !19
  %52 = getelementptr inbounds nuw %struct.pkcs7_enveloped_st, ptr %51, i32 0, i32 2
  %53 = load ptr, ptr %52, align 8, !tbaa !43
  %54 = getelementptr inbounds nuw %struct.pkcs7_enc_content_st, ptr %53, i32 0, i32 2
  store ptr %48, ptr %54, align 8, !tbaa !140
  br label %55

55:                                               ; preds = %46, %36
  br label %65

56:                                               ; preds = %2
  %57 = load ptr, ptr %5, align 8, !tbaa !3
  %58 = getelementptr inbounds nuw %struct.pkcs7_st, ptr %57, i32 0, i32 5
  %59 = load ptr, ptr %58, align 8, !tbaa !19
  %60 = getelementptr inbounds nuw %struct.pkcs7_signed_st, ptr %59, i32 0, i32 5
  %61 = load ptr, ptr %60, align 8, !tbaa !21
  %62 = getelementptr inbounds nuw %struct.pkcs7_st, ptr %61, i32 0, i32 5
  %63 = load ptr, ptr %62, align 8, !tbaa !19
  store ptr %63, ptr %6, align 8, !tbaa !28
  br label %65

64:                                               ; preds = %2
  store ptr null, ptr %6, align 8, !tbaa !28
  br label %65

65:                                               ; preds = %64, %56, %55, %35, %12
  %66 = load ptr, ptr %6, align 8, !tbaa !28
  %67 = icmp eq ptr %66, null
  br i1 %67, label %68, label %69

68:                                               ; preds = %65
  store i32 0, ptr %3, align 4
  store i32 1, ptr %7, align 4
  br label %77

69:                                               ; preds = %65
  %70 = load ptr, ptr %6, align 8, !tbaa !28
  %71 = getelementptr inbounds nuw %struct.asn1_string_st, ptr %70, i32 0, i32 3
  %72 = load i64, ptr %71, align 8, !tbaa !141
  %73 = or i64 %72, 16
  store i64 %73, ptr %71, align 8, !tbaa !141
  %74 = load ptr, ptr %6, align 8, !tbaa !28
  %75 = getelementptr inbounds nuw %struct.asn1_string_st, ptr %74, i32 0, i32 2
  %76 = load ptr, ptr %4, align 8, !tbaa !138
  store ptr %75, ptr %76, align 8, !tbaa !143
  store i32 1, ptr %3, align 4
  store i32 1, ptr %7, align 4
  br label %77

77:                                               ; preds = %69, %68
  call void @llvm.lifetime.end.p0(i64 8, ptr %6) #4
  %78 = load i32, ptr %3, align 4
  ret i32 %78
}