; Function Attrs: nounwind uwtable
define range(i32 0, 2) i32 @PKCS7_stream(ptr noundef writeonly captures(none) %0, ptr noundef readonly captures(none) %1) local_unnamed_addr #0 {
  %3 = getelementptr inbounds nuw i8, ptr %1, i64 24
  %4 = load ptr, ptr %3, align 8, !tbaa !3
  %5 = tail call i32 @OBJ_obj2nid(ptr noundef %4) #7
  switch i32 %5, label %.thread20 [
    i32 21, label %6
    i32 24, label %9
    i32 23, label %23
    i32 22, label %37
  ]

6:                                                ; preds = %2
  %7 = getelementptr inbounds nuw i8, ptr %1, i64 32
  %8 = load ptr, ptr %7, align 8, !tbaa !14
  br label %44

9:                                                ; preds = %2
  %10 = getelementptr inbounds nuw i8, ptr %1, i64 32
  %11 = load ptr, ptr %10, align 8, !tbaa !14
  %12 = getelementptr inbounds nuw i8, ptr %11, i64 40
  %13 = load ptr, ptr %12, align 8, !tbaa !29
  %14 = getelementptr inbounds nuw i8, ptr %13, i64 16
  %15 = load ptr, ptr %14, align 8, !tbaa !105
  %16 = icmp eq ptr %15, null
  br i1 %16, label %17, label %.thread

17:                                               ; preds = %9
  %18 = tail call ptr @ASN1_OCTET_STRING_new() #7
  %19 = load ptr, ptr %10, align 8, !tbaa !14
  %20 = getelementptr inbounds nuw i8, ptr %19, i64 40
  %21 = load ptr, ptr %20, align 8, !tbaa !29
  %22 = getelementptr inbounds nuw i8, ptr %21, i64 16
  store ptr %18, ptr %22, align 8, !tbaa !105
  br label %44

23:                                               ; preds = %2
  %24 = getelementptr inbounds nuw i8, ptr %1, i64 32
  %25 = load ptr, ptr %24, align 8, !tbaa !14
  %26 = getelementptr inbounds nuw i8, ptr %25, i64 16
  %27 = load ptr, ptr %26, align 8, !tbaa !37
  %28 = getelementptr inbounds nuw i8, ptr %27, i64 16
  %29 = load ptr, ptr %28, align 8, !tbaa !105
  %30 = icmp eq ptr %29, null
  br i1 %30, label %31, label %.thread

31:                                               ; preds = %23
  %32 = tail call ptr @ASN1_OCTET_STRING_new() #7
  %33 = load ptr, ptr %24, align 8, !tbaa !14
  %34 = getelementptr inbounds nuw i8, ptr %33, i64 16
  %35 = load ptr, ptr %34, align 8, !tbaa !37
  %36 = getelementptr inbounds nuw i8, ptr %35, i64 16
  store ptr %32, ptr %36, align 8, !tbaa !105
  br label %44

37:                                               ; preds = %2
  %38 = getelementptr inbounds nuw i8, ptr %1, i64 32
  %39 = load ptr, ptr %38, align 8, !tbaa !14
  %40 = getelementptr inbounds nuw i8, ptr %39, i64 40
  %41 = load ptr, ptr %40, align 8, !tbaa !16
  %42 = getelementptr inbounds nuw i8, ptr %41, i64 32
  %43 = load ptr, ptr %42, align 8, !tbaa !14
  br label %44

44:                                               ; preds = %31, %17, %37, %6
  %.0 = phi ptr [ %43, %37 ], [ %32, %31 ], [ %18, %17 ], [ %8, %6 ]
  %45 = icmp eq ptr %.0, null
  br i1 %45, label %.thread20, label %.thread

.thread:                                          ; preds = %9, %23, %44
  %.019 = phi ptr [ %.0, %44 ], [ %15, %9 ], [ %29, %23 ]
  %46 = getelementptr inbounds nuw i8, ptr %.019, i64 16
  %47 = load i64, ptr %46, align 8, !tbaa !106
  %48 = or i64 %47, 16
  store i64 %48, ptr %46, align 8, !tbaa !106
  %49 = getelementptr inbounds nuw i8, ptr %.019, i64 8
  store ptr %49, ptr %0, align 8, !tbaa !108
  br label %.thread20

.thread20:                                        ; preds = %2, %44, %.thread
  %.015 = phi i32 [ 1, %.thread ], [ 0, %44 ], [ 0, %2 ]
  ret i32 %.015
}